
Pedal1_app.elf:     file format elf32-avr

Sections:
Idx Name          Size      VMA       LMA       File off  Algn
  0 .text         0000023e  00000000  00000000  00000094  2**1
                  CONTENTS, ALLOC, LOAD, READONLY, CODE
  1 .data         00000000  00800060  0000023e  000002d2  2**0
                  CONTENTS, ALLOC, LOAD, DATA
  2 .bss          00000003  00800060  00800060  000002d2  2**0
                  ALLOC
  3 .comment      00000030  00000000  00000000  000002d2  2**0
                  CONTENTS, READONLY
  4 .debug_aranges 00000080  00000000  00000000  00000302  2**0
                  CONTENTS, READONLY, DEBUGGING
  5 .debug_info   00000760  00000000  00000000  00000382  2**0
                  CONTENTS, READONLY, DEBUGGING
  6 .debug_abbrev 000001bd  00000000  00000000  00000ae2  2**0
                  CONTENTS, READONLY, DEBUGGING
  7 .debug_line   00000290  00000000  00000000  00000c9f  2**0
                  CONTENTS, READONLY, DEBUGGING
  8 .debug_frame  000000e4  00000000  00000000  00000f30  2**2
                  CONTENTS, READONLY, DEBUGGING
  9 .debug_str    0000048b  00000000  00000000  00001014  2**0
                  CONTENTS, READONLY, DEBUGGING
 10 .debug_loc    0000020a  00000000  00000000  0000149f  2**0
                  CONTENTS, READONLY, DEBUGGING
 11 .debug_ranges 00000070  00000000  00000000  000016a9  2**0
                  CONTENTS, READONLY, DEBUGGING

Disassembly of section .text:

00000000 <__vectors>:
   0:	09 c0       	rjmp	.+18     	; 0x14 <__ctors_end>
   2:	16 c0       	rjmp	.+44     	; 0x30 <__bad_interrupt>
   4:	15 c0       	rjmp	.+42     	; 0x30 <__bad_interrupt>
   6:	14 c0       	rjmp	.+40     	; 0x30 <__bad_interrupt>
   8:	13 c0       	rjmp	.+38     	; 0x30 <__bad_interrupt>
   a:	12 c0       	rjmp	.+36     	; 0x30 <__bad_interrupt>
   c:	11 c0       	rjmp	.+34     	; 0x30 <__bad_interrupt>
   e:	10 c0       	rjmp	.+32     	; 0x30 <__bad_interrupt>
  10:	0f c0       	rjmp	.+30     	; 0x30 <__bad_interrupt>
  12:	0e c0       	rjmp	.+28     	; 0x30 <__bad_interrupt>

00000014 <__ctors_end>:
  14:	11 24       	eor	r1, r1
  16:	1f be       	out	0x3f, r1	; 63
  18:	cf e9       	ldi	r28, 0x9F	; 159
  1a:	cd bf       	out	0x3d, r28	; 61

0000001c <__do_clear_bss>:
  1c:	20 e0       	ldi	r18, 0x00	; 0
  1e:	a0 e6       	ldi	r26, 0x60	; 96
  20:	b0 e0       	ldi	r27, 0x00	; 0
  22:	01 c0       	rjmp	.+2      	; 0x26 <.do_clear_bss_start>

00000024 <.do_clear_bss_loop>:
  24:	1d 92       	st	X+, r1

00000026 <.do_clear_bss_start>:
  26:	a3 36       	cpi	r26, 0x63	; 99
  28:	b2 07       	cpc	r27, r18
  2a:	e1 f7       	brne	.-8      	; 0x24 <.do_clear_bss_loop>
  2c:	e0 d0       	rcall	.+448    	; 0x1ee <main>
  2e:	05 c1       	rjmp	.+522    	; 0x23a <_exit>

00000030 <__bad_interrupt>:
  30:	e7 cf       	rjmp	.-50     	; 0x0 <__vectors>

00000032 <_Z6TurnOni>:
//Turn on the pin of this #define name or number
//By our convention, 'on' means this pin will have a value of Vcc Volts
//HIGH VOLTAGE
void TurnOn(int pinNumber) //"TurnOn seems to pull the IO high, which gives a red result"
{
	PORTB |= (1 << pinNumber); // Set 1 on pinNumber pin (turn on this port)
  32:	48 b3       	in	r20, 0x18	; 24
  34:	21 e0       	ldi	r18, 0x01	; 1
  36:	30 e0       	ldi	r19, 0x00	; 0
  38:	b9 01       	movw	r22, r18
  3a:	02 c0       	rjmp	.+4      	; 0x40 <__SREG__+0x1>
  3c:	66 0f       	add	r22, r22
  3e:	77 1f       	adc	r23, r23
  40:	8a 95       	dec	r24
  42:	e2 f7       	brpl	.-8      	; 0x3c <_Z6TurnOni+0xa>
  44:	cb 01       	movw	r24, r22
  46:	84 2b       	or	r24, r20
  48:	88 bb       	out	0x18, r24	; 24
  4a:	08 95       	ret

0000004c <_Z7TurnOffi>:
//Turn off the pin of this #define name or number
//By our convention, 'off' means this pin will have a value of 0 Volts
//LOW VOLTAGE
void TurnOff(int pinNumber)
{
	PORTB &= ~(1 << pinNumber); // Set 0 on pinNumber pin (turn off this port)
  4c:	98 b3       	in	r25, 0x18	; 24
  4e:	21 e0       	ldi	r18, 0x01	; 1
  50:	30 e0       	ldi	r19, 0x00	; 0
  52:	02 c0       	rjmp	.+4      	; 0x58 <_Z7TurnOffi+0xc>
  54:	22 0f       	add	r18, r18
  56:	33 1f       	adc	r19, r19
  58:	8a 95       	dec	r24
  5a:	e2 f7       	brpl	.-8      	; 0x54 <_Z7TurnOffi+0x8>
  5c:	20 95       	com	r18
  5e:	92 23       	and	r25, r18
  60:	98 bb       	out	0x18, r25	; 24
  62:	08 95       	ret

00000064 <_Z15ButtonIsPressedv>:



bool ButtonIsPressed()
{
	if(bit_is_clear(PINB, SWT)) //If we detect 0V on the switch
  64:	b0 99       	sbic	0x16, 0	; 22
  66:	0a c0       	rjmp	.+20     	; 0x7c <_Z15ButtonIsPressedv+0x18>
	#else
		//round up by default
		__ticks_dc = (uint32_t)(ceil(fabs(__tmp)));
	#endif

	__builtin_avr_delay_cycles(__ticks_dc);
  68:	87 e5       	ldi	r24, 0x57	; 87
  6a:	92 e0       	ldi	r25, 0x02	; 2
  6c:	01 97       	sbiw	r24, 0x01	; 1
  6e:	f1 f7       	brne	.-4      	; 0x6c <_Z15ButtonIsPressedv+0x8>
  70:	00 c0       	rjmp	.+0      	; 0x72 <_Z15ButtonIsPressedv+0xe>
  72:	00 00       	nop
	{
		_delay_ms(DEBOUNCE_TIME); // Wait DEBOUNCE_TIME ms
		
		if(bit_is_clear(PINB, SWT)) //If it's still 0V after the delay
  74:	86 b3       	in	r24, 0x16	; 22
  76:	80 95       	com	r24
  78:	81 70       	andi	r24, 0x01	; 1
  7a:	08 95       	ret
		{
			return 1; //It's a real button press
		}
	}
	
	return 0; //Otherwise, ignore it
  7c:	80 e0       	ldi	r24, 0x00	; 0
}
  7e:	08 95       	ret

00000080 <_Z9FlipRelayb>:


//Switches the relay position. 'desiredRelayPosition' of 0 turns the effect off. 1 turns effect on
void FlipRelay(bool desiredRelayPosition)
{
	if(desiredRelayPosition == 0) //if it's 0
  80:	81 11       	cpse	r24, r1
  82:	07 c0       	rjmp	.+14     	; 0x92 <_Z9FlipRelayb+0x12>
	{

		TurnOn(RELAY_POS);
  84:	81 e0       	ldi	r24, 0x01	; 1
  86:	90 e0       	ldi	r25, 0x00	; 0
  88:	d4 df       	rcall	.-88     	; 0x32 <_Z6TurnOni>
		TurnOff(RELAY_NEG);
  8a:	82 e0       	ldi	r24, 0x02	; 2
  8c:	90 e0       	ldi	r25, 0x00	; 0
  8e:	de df       	rcall	.-68     	; 0x4c <_Z7TurnOffi>
  90:	08 95       	ret
	}
	
	else //if it's 1
	{
		
		TurnOn(RELAY_NEG);
  92:	82 e0       	ldi	r24, 0x02	; 2
  94:	90 e0       	ldi	r25, 0x00	; 0
  96:	cd df       	rcall	.-102    	; 0x32 <_Z6TurnOni>
		TurnOff(RELAY_POS);
  98:	81 e0       	ldi	r24, 0x01	; 1
  9a:	90 e0       	ldi	r25, 0x00	; 0
  9c:	d7 df       	rcall	.-82     	; 0x4c <_Z7TurnOffi>
  9e:	08 95       	ret

000000a0 <_Z12TurnOnEffectv>:
	}
}

void TurnOnEffect()
{
	TurnOn(LED); //Drive LED high
  a0:	83 e0       	ldi	r24, 0x03	; 3
  a2:	90 e0       	ldi	r25, 0x00	; 0
  a4:	c6 df       	rcall	.-116    	; 0x32 <_Z6TurnOni>
	
	TurnOn(FET_MUTE); //Mute
  a6:	84 e0       	ldi	r24, 0x04	; 4
  a8:	90 e0       	ldi	r25, 0x00	; 0
  aa:	c3 df       	rcall	.-122    	; 0x32 <_Z6TurnOni>
	FlipRelay(1); //Switch relay position
  ac:	81 e0       	ldi	r24, 0x01	; 1
  ae:	e8 df       	rcall	.-48     	; 0x80 <_Z9FlipRelayb>
	TurnOff(FET_MUTE); //Unmute
  b0:	84 e0       	ldi	r24, 0x04	; 4
  b2:	90 e0       	ldi	r25, 0x00	; 0
  b4:	cb df       	rcall	.-106    	; 0x4c <_Z7TurnOffi>
	
	effectState = 1;
  b6:	81 e0       	ldi	r24, 0x01	; 1
  b8:	80 93 62 00 	sts	0x0062, r24
  bc:	08 95       	ret

000000be <_Z13TurnOffEffectv>:
}

void TurnOffEffect()
{
	TurnOff(LED); //Drive LED low
  be:	83 e0       	ldi	r24, 0x03	; 3
  c0:	90 e0       	ldi	r25, 0x00	; 0
  c2:	c4 df       	rcall	.-120    	; 0x4c <_Z7TurnOffi>
	
	TurnOn(FET_MUTE); //Mute
  c4:	84 e0       	ldi	r24, 0x04	; 4
  c6:	90 e0       	ldi	r25, 0x00	; 0
  c8:	b4 df       	rcall	.-152    	; 0x32 <_Z6TurnOni>
	FlipRelay(0); //Switch relay position
  ca:	80 e0       	ldi	r24, 0x00	; 0
  cc:	d9 df       	rcall	.-78     	; 0x80 <_Z9FlipRelayb>
	TurnOff(FET_MUTE); //Unmute
  ce:	84 e0       	ldi	r24, 0x04	; 4
  d0:	90 e0       	ldi	r25, 0x00	; 0
  d2:	bc df       	rcall	.-136    	; 0x4c <_Z7TurnOffi>
	
	effectState = 0;
  d4:	10 92 62 00 	sts	0x0062, r1
  d8:	08 95       	ret

000000da <_Z10toggle_ledv>:



void toggle_led()
{
	PORTB ^= _BV(LED); //XOR this bit, so we toggle it on and off with each function call
  da:	98 b3       	in	r25, 0x18	; 24
  dc:	88 e0       	ldi	r24, 0x08	; 8
  de:	89 27       	eor	r24, r25
  e0:	88 bb       	out	0x18, r24	; 24
  e2:	08 95       	ret

000000e4 <_Z8InitGPIOv>:

void InitGPIO()
{
	//inputs - SET input direction on all of these pins
	//Default data direction is an input
	PORTB |= (1 << SWT); //Enable pull-up resistor on SWT
  e4:	c0 9a       	sbi	0x18, 0	; 24
	
	//outputs - SET output direction on all of these pins
	DDRB = (1 << RELAY_POS) | (1 << RELAY_NEG) | (1 << LED) | (1 << FET_MUTE); // Set output direction for these ports
  e6:	8e e1       	ldi	r24, 0x1E	; 30
  e8:	87 bb       	out	0x17, r24	; 23
  ea:	8f e2       	ldi	r24, 0x2F	; 47
  ec:	95 e7       	ldi	r25, 0x75	; 117
  ee:	01 97       	sbiw	r24, 0x01	; 1
  f0:	f1 f7       	brne	.-4      	; 0xee <_Z8InitGPIOv+0xa>
  f2:	00 c0       	rjmp	.+0      	; 0xf4 <_Z8InitGPIOv+0x10>
  f4:	00 00       	nop
  f6:	8f e2       	ldi	r24, 0x2F	; 47
  f8:	95 e7       	ldi	r25, 0x75	; 117
  fa:	01 97       	sbiw	r24, 0x01	; 1
  fc:	f1 f7       	brne	.-4      	; 0xfa <_Z8InitGPIOv+0x16>
  fe:	00 c0       	rjmp	.+0      	; 0x100 <_Z8InitGPIOv+0x1c>
 100:	00 00       	nop
 102:	8f e2       	ldi	r24, 0x2F	; 47
 104:	95 e7       	ldi	r25, 0x75	; 117
 106:	01 97       	sbiw	r24, 0x01	; 1
 108:	f1 f7       	brne	.-4      	; 0x106 <_Z8InitGPIOv+0x22>
 10a:	00 c0       	rjmp	.+0      	; 0x10c <_Z8InitGPIOv+0x28>
 10c:	00 00       	nop
 10e:	8f e2       	ldi	r24, 0x2F	; 47
 110:	95 e7       	ldi	r25, 0x75	; 117
 112:	01 97       	sbiw	r24, 0x01	; 1
 114:	f1 f7       	brne	.-4      	; 0x112 <_Z8InitGPIOv+0x2e>
 116:	00 c0       	rjmp	.+0      	; 0x118 <_Z8InitGPIOv+0x34>
 118:	00 00       	nop
 11a:	8f e2       	ldi	r24, 0x2F	; 47
 11c:	95 e7       	ldi	r25, 0x75	; 117
 11e:	01 97       	sbiw	r24, 0x01	; 1
 120:	f1 f7       	brne	.-4      	; 0x11e <_Z8InitGPIOv+0x3a>
 122:	00 c0       	rjmp	.+0      	; 0x124 <_Z8InitGPIOv+0x40>
 124:	00 00       	nop
	_delay_ms(100);
	_delay_ms(100);
	_delay_ms(100);
	
	//Initial states for outputs
	TurnOffEffect();
 126:	cb df       	rcall	.-106    	; 0xbe <_Z13TurnOffEffectv>
 128:	08 95       	ret

0000012a <_Z31MomentaryTriggerDetectedFromOffv>:

//Momentary features

bool MomentaryTriggerDetectedFromOff()
{
	momentaryCounter = 0; //reset
 12a:	10 92 61 00 	sts	0x0061, r1
 12e:	10 92 60 00 	sts	0x0060, r1
	
	//Momentary prototype
	while (ButtonIsPressed() && momentaryCounter <= MOMENTARY_COUNTER_THRESHOLD_FROM_OFF)
 132:	98 df       	rcall	.-208    	; 0x64 <_Z15ButtonIsPressedv>
 134:	88 23       	and	r24, r24
 136:	39 f0       	breq	.+14     	; 0x146 <_Z31MomentaryTriggerDetectedFromOffv+0x1c>
 138:	80 91 60 00 	lds	r24, 0x0060
 13c:	90 91 61 00 	lds	r25, 0x0061
 140:	87 30       	cpi	r24, 0x07	; 7
 142:	91 05       	cpc	r25, r1
 144:	50 f0       	brcs	.+20     	; 0x15a <_Z31MomentaryTriggerDetectedFromOffv+0x30>
	{
		momentaryCounter++;
		_delay_ms(MOMENTARY_WAIT_PERIOD_FROM_OFF);
	}
	
	if(momentaryCounter > MOMENTARY_COUNTER_THRESHOLD_FROM_OFF) //If the button's been held down for long enough
 146:	81 e0       	ldi	r24, 0x01	; 1
 148:	20 91 60 00 	lds	r18, 0x0060
 14c:	30 91 61 00 	lds	r19, 0x0061
 150:	27 30       	cpi	r18, 0x07	; 7
 152:	31 05       	cpc	r19, r1
 154:	70 f4       	brcc	.+28     	; 0x172 <_Z31MomentaryTriggerDetectedFromOffv+0x48>
 156:	80 e0       	ldi	r24, 0x00	; 0
 158:	08 95       	ret
	momentaryCounter = 0; //reset
	
	//Momentary prototype
	while (ButtonIsPressed() && momentaryCounter <= MOMENTARY_COUNTER_THRESHOLD_FROM_OFF)
	{
		momentaryCounter++;
 15a:	01 96       	adiw	r24, 0x01	; 1
 15c:	90 93 61 00 	sts	0x0061, r25
 160:	80 93 60 00 	sts	0x0060, r24
 164:	8f e2       	ldi	r24, 0x2F	; 47
 166:	95 e7       	ldi	r25, 0x75	; 117
 168:	01 97       	sbiw	r24, 0x01	; 1
 16a:	f1 f7       	brne	.-4      	; 0x168 <_Z31MomentaryTriggerDetectedFromOffv+0x3e>
 16c:	00 c0       	rjmp	.+0      	; 0x16e <_Z31MomentaryTriggerDetectedFromOffv+0x44>
 16e:	00 00       	nop
 170:	e0 cf       	rjmp	.-64     	; 0x132 <_Z31MomentaryTriggerDetectedFromOffv+0x8>
	{
		return true;
	}
	
	return false;
}
 172:	08 95       	ret

00000174 <_Z30MomentaryTriggerDetectedFromOnv>:

//Momentary trigger detector from 'On' position - different time constants
bool MomentaryTriggerDetectedFromOn()
{
	momentaryCounter = 0; //reset
 174:	10 92 61 00 	sts	0x0061, r1
 178:	10 92 60 00 	sts	0x0060, r1
	
	//Momentary prototype
	while (ButtonIsPressed() && momentaryCounter <= MOMENTARY_COUNTER_THRESHOLD_FROM_ON)
 17c:	73 df       	rcall	.-282    	; 0x64 <_Z15ButtonIsPressedv>
 17e:	88 23       	and	r24, r24
 180:	39 f0       	breq	.+14     	; 0x190 <_Z30MomentaryTriggerDetectedFromOnv+0x1c>
 182:	80 91 60 00 	lds	r24, 0x0060
 186:	90 91 61 00 	lds	r25, 0x0061
 18a:	85 30       	cpi	r24, 0x05	; 5
 18c:	91 05       	cpc	r25, r1
 18e:	50 f0       	brcs	.+20     	; 0x1a4 <_Z30MomentaryTriggerDetectedFromOnv+0x30>
	{
		momentaryCounter++;
		_delay_ms(MOMENTARY_WAIT_PERIOD_FROM_ON);
	}
	
	if(momentaryCounter > MOMENTARY_COUNTER_THRESHOLD_FROM_ON) //If the button's been held down for long enough
 190:	81 e0       	ldi	r24, 0x01	; 1
 192:	20 91 60 00 	lds	r18, 0x0060
 196:	30 91 61 00 	lds	r19, 0x0061
 19a:	25 30       	cpi	r18, 0x05	; 5
 19c:	31 05       	cpc	r19, r1
 19e:	70 f4       	brcc	.+28     	; 0x1bc <_Z30MomentaryTriggerDetectedFromOnv+0x48>
 1a0:	80 e0       	ldi	r24, 0x00	; 0
 1a2:	08 95       	ret
	momentaryCounter = 0; //reset
	
	//Momentary prototype
	while (ButtonIsPressed() && momentaryCounter <= MOMENTARY_COUNTER_THRESHOLD_FROM_ON)
	{
		momentaryCounter++;
 1a4:	01 96       	adiw	r24, 0x01	; 1
 1a6:	90 93 61 00 	sts	0x0061, r25
 1aa:	80 93 60 00 	sts	0x0060, r24
 1ae:	8f e2       	ldi	r24, 0x2F	; 47
 1b0:	95 e7       	ldi	r25, 0x75	; 117
 1b2:	01 97       	sbiw	r24, 0x01	; 1
 1b4:	f1 f7       	brne	.-4      	; 0x1b2 <_Z30MomentaryTriggerDetectedFromOnv+0x3e>
 1b6:	00 c0       	rjmp	.+0      	; 0x1b8 <_Z30MomentaryTriggerDetectedFromOnv+0x44>
 1b8:	00 00       	nop
 1ba:	e0 cf       	rjmp	.-64     	; 0x17c <_Z30MomentaryTriggerDetectedFromOnv+0x8>
	{
		return true;
	}
	
	return false;
}
 1bc:	08 95       	ret

000001be <_Z18EnterMomentaryModev>:

void EnterMomentaryMode()
{
	//Enter momentary mode
	while (ButtonIsPressed()) //While the button's still pressed in momentary mode
 1be:	07 c0       	rjmp	.+14     	; 0x1ce <_Z18EnterMomentaryModev+0x10>
	{
		toggle_led(); //Toggle LED to indicate momentary mode
 1c0:	8c df       	rcall	.-232    	; 0xda <_Z10toggle_ledv>
 1c2:	8b e6       	ldi	r24, 0x6B	; 107
 1c4:	99 e3       	ldi	r25, 0x39	; 57
 1c6:	01 97       	sbiw	r24, 0x01	; 1
 1c8:	f1 f7       	brne	.-4      	; 0x1c6 <_Z18EnterMomentaryModev+0x8>
 1ca:	00 c0       	rjmp	.+0      	; 0x1cc <_Z18EnterMomentaryModev+0xe>
 1cc:	00 00       	nop
}

void EnterMomentaryMode()
{
	//Enter momentary mode
	while (ButtonIsPressed()) //While the button's still pressed in momentary mode
 1ce:	4a df       	rcall	.-364    	; 0x64 <_Z15ButtonIsPressedv>
 1d0:	81 11       	cpse	r24, r1
 1d2:	f6 cf       	rjmp	.-20     	; 0x1c0 <_Z18EnterMomentaryModev+0x2>
	{
		toggle_led(); //Toggle LED to indicate momentary mode
		_delay_ms(MOMENTARY_MODE_ACTIVE_POLL_PERIOD); //Wait another few ms, then re-poll to see if user's foot is still on button
	}
	
	TurnOffEffect(); //When button's no longer down, turn the effect off
 1d4:	74 df       	rcall	.-280    	; 0xbe <_Z13TurnOffEffectv>
 1d6:	08 95       	ret

000001d8 <_Z23WaitUntilButtonReleasedv>:
	//momentaryCounter = 0; //Reset momentary counter
}

void WaitUntilButtonReleased()
{
	while(ButtonIsPressed())
 1d8:	06 c0       	rjmp	.+12     	; 0x1e6 <_Z23WaitUntilButtonReleasedv+0xe>
 1da:	87 eb       	ldi	r24, 0xB7	; 183
 1dc:	9b e0       	ldi	r25, 0x0B	; 11
 1de:	01 97       	sbiw	r24, 0x01	; 1
 1e0:	f1 f7       	brne	.-4      	; 0x1de <_Z23WaitUntilButtonReleasedv+0x6>
 1e2:	00 c0       	rjmp	.+0      	; 0x1e4 <_Z23WaitUntilButtonReleasedv+0xc>
 1e4:	00 00       	nop
 1e6:	3e df       	rcall	.-388    	; 0x64 <_Z15ButtonIsPressedv>
 1e8:	81 11       	cpse	r24, r1
 1ea:	f7 cf       	rjmp	.-18     	; 0x1da <_Z23WaitUntilButtonReleasedv+0x2>
	{
		_delay_ms(HOLD_OFF_MODE_ACTIVE_POLL_PERIOD); //Wait another few ms, then re-poll to see if user's foot is still on button
	}
	
	//momentaryCounter = 0;
}
 1ec:	08 95       	ret

000001ee <main>:



int main(void)
{
	InitGPIO();
 1ee:	7a df       	rcall	.-268    	; 0xe4 <_Z8InitGPIOv>
	

	while(1)
	{
		if(ButtonIsPressed())
 1f0:	39 df       	rcall	.-398    	; 0x64 <_Z15ButtonIsPressedv>
 1f2:	88 23       	and	r24, r24
 1f4:	e9 f3       	breq	.-6      	; 0x1f0 <main+0x2>
		{
			if(effectState == 0)
 1f6:	80 91 62 00 	lds	r24, 0x0062
 1fa:	81 11       	cpse	r24, r1
 1fc:	0f c0       	rjmp	.+30     	; 0x21c <main+0x2e>
			{
				TurnOnEffect();
 1fe:	50 df       	rcall	.-352    	; 0xa0 <_Z12TurnOnEffectv>
 200:	2f e5       	ldi	r18, 0x5F	; 95
 202:	8a ee       	ldi	r24, 0xEA	; 234
 204:	90 e0       	ldi	r25, 0x00	; 0
 206:	21 50       	subi	r18, 0x01	; 1
 208:	80 40       	sbci	r24, 0x00	; 0
 20a:	90 40       	sbci	r25, 0x00	; 0
 20c:	e1 f7       	brne	.-8      	; 0x206 <main+0x18>
 20e:	00 c0       	rjmp	.+0      	; 0x210 <main+0x22>
 210:	00 00       	nop
				_delay_ms(LOCK_INPUT_TIME);

				
				if(MomentaryTriggerDetectedFromOff()) //If pedal is held down for long enough
 212:	8b df       	rcall	.-234    	; 0x12a <_Z31MomentaryTriggerDetectedFromOffv>
 214:	88 23       	and	r24, r24
 216:	61 f3       	breq	.-40     	; 0x1f0 <main+0x2>
				{
					EnterMomentaryMode(); //Enter momentary mode, in which holding down the pedal engages the effect until the user lets go
 218:	d2 df       	rcall	.-92     	; 0x1be <_Z18EnterMomentaryModev>
 21a:	ea cf       	rjmp	.-44     	; 0x1f0 <main+0x2>
				//EnterMomentaryMode(); //Enter momentary mode, in which holding down the pedal engages the effect until the user lets go
				//}
				
				//else
				//{
				TurnOffEffect();
 21c:	50 df       	rcall	.-352    	; 0xbe <_Z13TurnOffEffectv>
 21e:	2f e5       	ldi	r18, 0x5F	; 95
 220:	8a ee       	ldi	r24, 0xEA	; 234
 222:	90 e0       	ldi	r25, 0x00	; 0
 224:	21 50       	subi	r18, 0x01	; 1
 226:	80 40       	sbci	r24, 0x00	; 0
 228:	90 40       	sbci	r25, 0x00	; 0
 22a:	e1 f7       	brne	.-8      	; 0x224 <main+0x36>
 22c:	00 c0       	rjmp	.+0      	; 0x22e <main+0x40>
 22e:	00 00       	nop
				_delay_ms(LOCK_INPUT_TIME);
				
				if(MomentaryTriggerDetectedFromOn())
 230:	a1 df       	rcall	.-190    	; 0x174 <_Z30MomentaryTriggerDetectedFromOnv>
 232:	88 23       	and	r24, r24
 234:	e9 f2       	breq	.-70     	; 0x1f0 <main+0x2>
				{
					WaitUntilButtonReleased();
 236:	d0 df       	rcall	.-96     	; 0x1d8 <_Z23WaitUntilButtonReleasedv>
 238:	db cf       	rjmp	.-74     	; 0x1f0 <main+0x2>

0000023a <_exit>:
 23a:	f8 94       	cli

0000023c <__stop_program>:
 23c:	ff cf       	rjmp	.-2      	; 0x23c <__stop_program>
